; ModuleID = 'source-C-CXX/46/619.c'
source_filename = "source-C-CXX/46/619.c"
target datalayout = "e-m:e-p270:32:32-p271:32:32-p272:64:64-i64:64-f80:128-n8:16:32:64-S128"
target triple = "x86_64-pc-linux-gnu"

@.str = private unnamed_addr constant [3 x i8] c"%d\00", align 1

; Function Attrs: nofree nounwind sspstrong uwtable
define dso_local i32 @main() local_unnamed_addr #0 {
  %1 = alloca i32, align 4
  %2 = alloca [100 x i32], align 16
  %3 = bitcast i32* %1 to i8*
  call void @llvm.lifetime.start.p0i8(i64 4, i8* nonnull %3) #4
  %4 = bitcast [100 x i32]* %2 to i8*
  call void @llvm.lifetime.start.p0i8(i64 400, i8* nonnull %4) #4
  %5 = call i32 (i8*, ...) @__isoc99_scanf(i8* getelementptr inbounds ([3 x i8], [3 x i8]* @.str, i64 0, i64 0), i32* nonnull %1)
  %6 = load i32, i32* %1, align 4, !tbaa !5
  %7 = icmp sgt i32 %6, 0
  br i1 %7, label %13, label %50

8:                                                ; preds = %13
  %9 = icmp sgt i32 %18, 1
  br i1 %9, label %10, label %21

10:                                               ; preds = %8
  %11 = zext i32 %18 to i64
  %12 = add nsw i64 %11, -1
  br label %23

13:                                               ; preds = %0, %13
  %14 = phi i64 [ %17, %13 ], [ 0, %0 ]
  %15 = getelementptr inbounds [100 x i32], [100 x i32]* %2, i64 0, i64 %14
  %16 = call i32 (i8*, ...) @__isoc99_scanf(i8* getelementptr inbounds ([3 x i8], [3 x i8]* @.str, i64 0, i64 0), i32* nonnull %15)
  %17 = add nuw nsw i64 %14, 1
  %18 = load i32, i32* %1, align 4, !tbaa !5
  %19 = sext i32 %18 to i64
  %20 = icmp slt i64 %17, %19
  br i1 %20, label %13, label %8, !llvm.loop !9

21:                                               ; preds = %23, %8
  %22 = icmp sgt i32 %18, 0
  br i1 %22, label %33, label %50

23:                                               ; preds = %10, %23
  %24 = phi i64 [ 0, %10 ], [ %30, %23 ]
  %25 = phi i64 [ %12, %10 ], [ %31, %23 ]
  %26 = getelementptr inbounds [100 x i32], [100 x i32]* %2, i64 0, i64 %24
  %27 = load i32, i32* %26, align 4, !tbaa !5
  %28 = getelementptr inbounds [100 x i32], [100 x i32]* %2, i64 0, i64 %25
  %29 = load i32, i32* %28, align 4, !tbaa !5
  store i32 %29, i32* %26, align 4, !tbaa !5
  store i32 %27, i32* %28, align 4, !tbaa !5
  %30 = add nuw nsw i64 %24, 1
  %31 = add nsw i64 %25, -1
  %32 = icmp slt i64 %30, %31
  br i1 %32, label %23, label %21, !llvm.loop !11

33:                                               ; preds = %21, %45
  %34 = phi i64 [ %47, %45 ], [ 0, %21 ]
  %35 = getelementptr inbounds [100 x i32], [100 x i32]* %2, i64 0, i64 %34
  %36 = load i32, i32* %35, align 4, !tbaa !5
  %37 = call i32 (i8*, ...) @printf(i8* nonnull dereferenceable(1) getelementptr inbounds ([3 x i8], [3 x i8]* @.str, i64 0, i64 0), i32 %36)
  %38 = load i32, i32* %1, align 4, !tbaa !5
  %39 = add nsw i32 %38, -1
  %40 = zext i32 %39 to i64
  %41 = icmp eq i64 %34, %40
  br i1 %41, label %45, label %42

42:                                               ; preds = %33
  %43 = call i32 @putchar(i32 32)
  %44 = load i32, i32* %1, align 4, !tbaa !5
  br label %45

45:                                               ; preds = %33, %42
  %46 = phi i32 [ %38, %33 ], [ %44, %42 ]
  %47 = add nuw nsw i64 %34, 1
  %48 = sext i32 %46 to i64
  %49 = icmp slt i64 %47, %48
  br i1 %49, label %33, label %50, !llvm.loop !12

50:                                               ; preds = %45, %0, %21
  call void @llvm.lifetime.end.p0i8(i64 400, i8* nonnull %4) #4
  call void @llvm.lifetime.end.p0i8(i64 4, i8* nonnull %3) #4
  ret i32 0
}

; Function Attrs: argmemonly mustprogress nofree nosync nounwind willreturn
declare void @llvm.lifetime.start.p0i8(i64 immarg, i8* nocapture) #1

; Function Attrs: nofree nounwind
declare noundef i32 @__isoc99_scanf(i8* nocapture noundef readonly, ...) local_unnamed_addr #2

; Function Attrs: argmemonly mustprogress nofree nosync nounwind willreturn
declare void @llvm.lifetime.end.p0i8(i64 immarg, i8* nocapture) #1

; Function Attrs: nofree nounwind
declare noundef i32 @printf(i8* nocapture noundef readonly, ...) local_unnamed_addr #2

; Function Attrs: nofree nounwind
declare noundef i32 @putchar(i32 noundef) local_unnamed_addr #3


!llvm.module.flags = !{!0, !1, !2, !3}
!llvm.ident = !{!4}

!0 = !{i32 1, !"wchar_size", i32 4}
!1 = !{i32 7, !"PIC Level", i32 2}
!2 = !{i32 7, !"PIE Level", i32 2}
!3 = !{i32 7, !"uwtable", i32 1}
!4 = !{!"clang version 13.0.0"}
!5 = !{!6, !6, i64 0}
!6 = !{!"int", !7, i64 0}
!7 = !{!"omnipotent char", !8, i64 0}
!8 = !{!"Simple C/C++ TBAA"}
!9 = distinct !{!9, !10}
!10 = !{!"llvm.loop.mustprogress"}
!11 = distinct !{!11, !10}
!12 = distinct !{!12, !10}
